target datalayout = "e-m:e-p270:32:32-p271:32:32-p272:64:64-i64:64-i128:128-f80:128-n8:16:32:64-S128"
target triple = "x86_64-pc-linux-gnu"

%struct.dsa_area_control = type { %struct.dsa_segment_header, i32, [1024 x i32], [16 x i64], [38 x %struct.dsa_area_pool], i64, i64, i64, i64, i64, i32, i8, i64, i32, %struct.LWLock }
%struct.dsa_segment_header = type { i32, i64, i64, i64, i64, i64, i8 }
%struct.dsa_area_pool = type { %struct.LWLock, [4 x i64] }
%struct.LWLock = type { i16, %struct.pg_atomic_uint32, %struct.proclist_head }
%struct.pg_atomic_uint32 = type { i32 }
%struct.proclist_head = type { i32, i32 }
%struct.dsa_area = type { ptr, ptr, [1024 x %struct.dsa_segment_map], i64, i64 }
%struct.dsa_segment_map = type { ptr, ptr, ptr, ptr, ptr }
%struct.FreePageManager = type { %union.RelptrFreePageManager, %union.RelptrFreePageBtree, %union.RelptrFreePageSpanLeader, i32, i32, i64, i64, i64, i8, [129 x %union.RelptrFreePageSpanLeader] }
%union.RelptrFreePageManager = type { ptr }
%union.RelptrFreePageBtree = type { ptr }
%union.RelptrFreePageSpanLeader = type { ptr }

; Function Attrs: inlinehint nounwind uwtable
define internal i32 @pg_leftmost_one_pos64(i64 noundef %0) #3 {
  %2 = alloca i64, align 8
  store i64 %0, ptr %2, align 8
  %3 = load i64, ptr %2, align 8
  %4 = call i64 @llvm.ctlz.i64(i64 %3, i1 true)
  %5 = trunc i64 %4 to i32
  %6 = sub i32 63, %5
  ret i32 %6
}

; Function Attrs: nounwind uwtable
define internal void @unlink_segment(ptr noundef %0, ptr noundef %1) #0 {
  %3 = alloca ptr, align 8
  %4 = alloca ptr, align 8
  %5 = alloca ptr, align 8
  %6 = alloca ptr, align 8
  store ptr %0, ptr %3, align 8
  store ptr %1, ptr %4, align 8
  %7 = load ptr, ptr %4, align 8
  %8 = getelementptr inbounds nuw %struct.dsa_segment_map, ptr %7, i32 0, i32 2
  %9 = load ptr, ptr %8, align 8
  %10 = getelementptr inbounds nuw %struct.dsa_segment_header, ptr %9, i32 0, i32 3
  %11 = load i64, ptr %10, align 8
  %12 = icmp ne i64 %11, -1
  br i1 %12, label %13, label %30

13:                                               ; preds = %2
  call void @llvm.lifetime.start.p0(i64 8, ptr %5) #8
  %14 = load ptr, ptr %3, align 8
  %15 = load ptr, ptr %4, align 8
  %16 = getelementptr inbounds nuw %struct.dsa_segment_map, ptr %15, i32 0, i32 2
  %17 = load ptr, ptr %16, align 8
  %18 = getelementptr inbounds nuw %struct.dsa_segment_header, ptr %17, i32 0, i32 3
  %19 = load i64, ptr %18, align 8
  %20 = call ptr @get_segment_by_index(ptr noundef %14, i64 noundef %19)
  store ptr %20, ptr %5, align 8
  %21 = load ptr, ptr %4, align 8
  %22 = getelementptr inbounds nuw %struct.dsa_segment_map, ptr %21, i32 0, i32 2
  %23 = load ptr, ptr %22, align 8
  %24 = getelementptr inbounds nuw %struct.dsa_segment_header, ptr %23, i32 0, i32 4
  %25 = load i64, ptr %24, align 8
  %26 = load ptr, ptr %5, align 8
  %27 = getelementptr inbounds nuw %struct.dsa_segment_map, ptr %26, i32 0, i32 2
  %28 = load ptr, ptr %27, align 8
  %29 = getelementptr inbounds nuw %struct.dsa_segment_header, ptr %28, i32 0, i32 4
  store i64 %25, ptr %29, align 8
  call void @llvm.lifetime.end.p0(i64 8, ptr %5) #8
  br label %46

30:                                               ; preds = %2
  %31 = load ptr, ptr %4, align 8
  %32 = getelementptr inbounds nuw %struct.dsa_segment_map, ptr %31, i32 0, i32 2
  %33 = load ptr, ptr %32, align 8
  %34 = getelementptr inbounds nuw %struct.dsa_segment_header, ptr %33, i32 0, i32 4
  %35 = load i64, ptr %34, align 8
  %36 = load ptr, ptr %3, align 8
  %37 = getelementptr inbounds nuw %struct.dsa_area, ptr %36, i32 0, i32 0
  %38 = load ptr, ptr %37, align 8
  %39 = getelementptr inbounds nuw %struct.dsa_area_control, ptr %38, i32 0, i32 3
  %40 = load ptr, ptr %4, align 8
  %41 = getelementptr inbounds nuw %struct.dsa_segment_map, ptr %40, i32 0, i32 2
  %42 = load ptr, ptr %41, align 8
  %43 = getelementptr inbounds nuw %struct.dsa_segment_header, ptr %42, i32 0, i32 5
  %44 = load i64, ptr %43, align 8
  %45 = getelementptr inbounds nuw [16 x i64], ptr %39, i64 0, i64 %44
  store i64 %35, ptr %45, align 8
  br label %46

46:                                               ; preds = %30, %13
  %47 = load ptr, ptr %4, align 8
  %48 = getelementptr inbounds nuw %struct.dsa_segment_map, ptr %47, i32 0, i32 2
  %49 = load ptr, ptr %48, align 8
  %50 = getelementptr inbounds nuw %struct.dsa_segment_header, ptr %49, i32 0, i32 4
  %51 = load i64, ptr %50, align 8
  %52 = icmp ne i64 %51, -1
  br i1 %52, label %53, label %70

53:                                               ; preds = %46
  call void @llvm.lifetime.start.p0(i64 8, ptr %6) #8
  %54 = load ptr, ptr %3, align 8
  %55 = load ptr, ptr %4, align 8
  %56 = getelementptr inbounds nuw %struct.dsa_segment_map, ptr %55, i32 0, i32 2
  %57 = load ptr, ptr %56, align 8
  %58 = getelementptr inbounds nuw %struct.dsa_segment_header, ptr %57, i32 0, i32 4
  %59 = load i64, ptr %58, align 8
  %60 = call ptr @get_segment_by_index(ptr noundef %54, i64 noundef %59)
  store ptr %60, ptr %6, align 8
  %61 = load ptr, ptr %4, align 8
  %62 = getelementptr inbounds nuw %struct.dsa_segment_map, ptr %61, i32 0, i32 2
  %63 = load ptr, ptr %62, align 8
  %64 = getelementptr inbounds nuw %struct.dsa_segment_header, ptr %63, i32 0, i32 3
  %65 = load i64, ptr %64, align 8
  %66 = load ptr, ptr %6, align 8
  %67 = getelementptr inbounds nuw %struct.dsa_segment_map, ptr %66, i32 0, i32 2
  %68 = load ptr, ptr %67, align 8
  %69 = getelementptr inbounds nuw %struct.dsa_segment_header, ptr %68, i32 0, i32 3
  store i64 %65, ptr %69, align 8
  call void @llvm.lifetime.end.p0(i64 8, ptr %6) #8
  br label %70

70:                                               ; preds = %53, %46
  ret void
}

; Function Attrs: inlinehint nounwind uwtable
define internal i64 @contiguous_pages_to_segment_bin(i64 noundef %0) #3 {
  %2 = alloca i64, align 8
  %3 = alloca i64, align 8
  store i64 %0, ptr %2, align 8
  call void @llvm.lifetime.start.p0(i64 8, ptr %3) #8
  %4 = load i64, ptr %2, align 8
  %5 = icmp eq i64 %4, 0
  br i1 %5, label %6, label %7

6:                                                ; preds = %1
  store i64 0, ptr %3, align 8
  br label %12

7:                                                ; preds = %1
  %8 = load i64, ptr %2, align 8
  %9 = call i32 @pg_leftmost_one_pos64(i64 noundef %8)
  %10 = add i32 %9, 1
  %11 = sext i32 %10 to i64
  store i64 %11, ptr %3, align 8
  br label %12

12:                                               ; preds = %7, %6
  %13 = load i64, ptr %3, align 8
  %14 = icmp ult i64 %13, 15
  br i1 %14, label %15, label %17

15:                                               ; preds = %12
  %16 = load i64, ptr %3, align 8
  br label %18

17:                                               ; preds = %12
  br label %18

18:                                               ; preds = %17, %15
  %19 = phi i64 [ %16, %15 ], [ 15, %17 ]
  call void @llvm.lifetime.end.p0(i64 8, ptr %3) #8
  ret i64 %19
}

; Function Attrs: nounwind uwtable
define internal void @rebin_segment(ptr noundef %0, ptr noundef %1) #0 {
  %3 = alloca ptr, align 8
  %4 = alloca ptr, align 8
  %5 = alloca i64, align 8
  %6 = alloca i64, align 8
  %7 = alloca i32, align 4
  %8 = alloca ptr, align 8
  store ptr %0, ptr %3, align 8
  store ptr %1, ptr %4, align 8
  call void @llvm.lifetime.start.p0(i64 8, ptr %5) #8
  call void @llvm.lifetime.start.p0(i64 8, ptr %6) #8
  %9 = load ptr, ptr %4, align 8
  %10 = getelementptr inbounds nuw %struct.dsa_segment_map, ptr %9, i32 0, i32 3
  %11 = load ptr, ptr %10, align 8
  %12 = getelementptr inbounds nuw %struct.FreePageManager, ptr %11, i32 0, i32 7
  %13 = load i64, ptr %12, align 8
  %14 = call i64 @contiguous_pages_to_segment_bin(i64 noundef %13)
  store i64 %14, ptr %5, align 8
  %15 = load ptr, ptr %4, align 8
  %16 = getelementptr inbounds nuw %struct.dsa_segment_map, ptr %15, i32 0, i32 2
  %17 = load ptr, ptr %16, align 8
  %18 = getelementptr inbounds nuw %struct.dsa_segment_header, ptr %17, i32 0, i32 5
  %19 = load i64, ptr %18, align 8
  %20 = load i64, ptr %5, align 8
  %21 = icmp eq i64 %19, %20
  br i1 %21, label %22, label %23

22:                                               ; preds = %2
  store i32 1, ptr %7, align 4
  br label %81

23:                                               ; preds = %2
  %24 = load ptr, ptr %3, align 8
  %25 = load ptr, ptr %4, align 8
  call void @unlink_segment(ptr noundef %24, ptr noundef %25)
  %26 = load ptr, ptr %4, align 8
  %27 = load ptr, ptr %3, align 8
  %28 = getelementptr inbounds nuw %struct.dsa_area, ptr %27, i32 0, i32 2
  %29 = getelementptr inbounds [1024 x %struct.dsa_segment_map], ptr %28, i64 0, i64 0
  %30 = ptrtoint ptr %26 to i64
  %31 = ptrtoint ptr %29 to i64
  %32 = sub i64 %30, %31
  %33 = sdiv exact i64 %32, 40
  store i64 %33, ptr %6, align 8
  %34 = load ptr, ptr %4, align 8
  %35 = getelementptr inbounds nuw %struct.dsa_segment_map, ptr %34, i32 0, i32 2
  %36 = load ptr, ptr %35, align 8
  %37 = getelementptr inbounds nuw %struct.dsa_segment_header, ptr %36, i32 0, i32 3
  store i64 -1, ptr %37, align 8
  %38 = load ptr, ptr %3, align 8
  %39 = getelementptr inbounds nuw %struct.dsa_area, ptr %38, i32 0, i32 0
  %40 = load ptr, ptr %39, align 8
  %41 = getelementptr inbounds nuw %struct.dsa_area_control, ptr %40, i32 0, i32 3
  %42 = load i64, ptr %5, align 8
  %43 = getelementptr inbounds nuw [16 x i64], ptr %41, i64 0, i64 %42
  %44 = load i64, ptr %43, align 8
  %45 = load ptr, ptr %4, align 8
  %46 = getelementptr inbounds nuw %struct.dsa_segment_map, ptr %45, i32 0, i32 2
  %47 = load ptr, ptr %46, align 8
  %48 = getelementptr inbounds nuw %struct.dsa_segment_header, ptr %47, i32 0, i32 4
  store i64 %44, ptr %48, align 8
  %49 = load i64, ptr %5, align 8
  %50 = load ptr, ptr %4, align 8
  %51 = getelementptr inbounds nuw %struct.dsa_segment_map, ptr %50, i32 0, i32 2
  %52 = load ptr, ptr %51, align 8
  %53 = getelementptr inbounds nuw %struct.dsa_segment_header, ptr %52, i32 0, i32 5
  store i64 %49, ptr %53, align 8
  %54 = load i64, ptr %6, align 8
  %55 = load ptr, ptr %3, align 8
  %56 = getelementptr inbounds nuw %struct.dsa_area, ptr %55, i32 0, i32 0
  %57 = load ptr, ptr %56, align 8
  %58 = getelementptr inbounds nuw %struct.dsa_area_control, ptr %57, i32 0, i32 3
  %59 = load i64, ptr %5, align 8
  %60 = getelementptr inbounds nuw [16 x i64], ptr %58, i64 0, i64 %59
  store i64 %54, ptr %60, align 8
  %61 = load ptr, ptr %4, align 8
  %62 = getelementptr inbounds nuw %struct.dsa_segment_map, ptr %61, i32 0, i32 2
  %63 = load ptr, ptr %62, align 8
  %64 = getelementptr inbounds nuw %struct.dsa_segment_header, ptr %63, i32 0, i32 4
  %65 = load i64, ptr %64, align 8
  %66 = icmp ne i64 %65, -1
  br i1 %66, label %67, label %80

67:                                               ; preds = %23
  call void @llvm.lifetime.start.p0(i64 8, ptr %8) #8
  %68 = load ptr, ptr %3, align 8
  %69 = load ptr, ptr %4, align 8
  %70 = getelementptr inbounds nuw %struct.dsa_segment_map, ptr %69, i32 0, i32 2
  %71 = load ptr, ptr %70, align 8
  %72 = getelementptr inbounds nuw %struct.dsa_segment_header, ptr %71, i32 0, i32 4
  %73 = load i64, ptr %72, align 8
  %74 = call ptr @get_segment_by_index(ptr noundef %68, i64 noundef %73)
  store ptr %74, ptr %8, align 8
  %75 = load i64, ptr %6, align 8
  %76 = load ptr, ptr %8, align 8
  %77 = getelementptr inbounds nuw %struct.dsa_segment_map, ptr %76, i32 0, i32 2
  %78 = load ptr, ptr %77, align 8
  %79 = getelementptr inbounds nuw %struct.dsa_segment_header, ptr %78, i32 0, i32 3
  store i64 %75, ptr %79, align 8
  call void @llvm.lifetime.end.p0(i64 8, ptr %8) #8
  br label %80

80:                                               ; preds = %67, %23
  store i32 0, ptr %7, align 4
  br label %81

81:                                               ; preds = %80, %22
  call void @llvm.lifetime.end.p0(i64 8, ptr %6) #8
  call void @llvm.lifetime.end.p0(i64 8, ptr %5) #8
  %82 = load i32, ptr %7, align 4
  switch i32 %82, label %84 [
    i32 0, label %83
    i32 1, label %83
  ]

83:                                               ; preds = %81, %81
  ret void

84:                                               ; preds = %81
  unreachable
}