; Function Attrs: nounwind uwtable
define internal fastcc void @rebin_segment(ptr noundef %0, ptr noundef %1) unnamed_addr #0 {
  %3 = getelementptr inbounds nuw i8, ptr %1, i64 24
  %4 = load ptr, ptr %3, align 8
  %5 = getelementptr inbounds nuw i8, ptr %4, i64 48
  %6 = load i64, ptr %5, align 8
  %7 = icmp eq i64 %6, 0
  %8 = tail call range(i64 0, 65) i64 @llvm.ctlz.i64(i64 range(i64 1, 0) %6, i1 true)
  %9 = sub nuw nsw i64 64, %8
  %10 = tail call i64 @llvm.umin.i64(i64 %9, i64 15)
  %11 = select i1 %7, i64 0, i64 %10
  %12 = getelementptr inbounds nuw i8, ptr %1, i64 16
  %13 = load ptr, ptr %12, align 8
  %14 = getelementptr inbounds nuw i8, ptr %13, i64 40
  %15 = load i64, ptr %14, align 8
  %16 = icmp eq i64 %15, %11
  br i1 %16, label %72, label %17

17:                                               ; preds = %2
  %18 = getelementptr inbounds nuw i8, ptr %13, i64 24
  %19 = load i64, ptr %18, align 8
  %.not.i = icmp eq i64 %19, -1
  br i1 %.not.i, label %28, label %20

20:                                               ; preds = %17
  %21 = tail call fastcc ptr @get_segment_by_index(ptr noundef %0, i64 noundef %19)
  %22 = load ptr, ptr %12, align 8
  %23 = getelementptr inbounds nuw i8, ptr %22, i64 32
  %24 = load i64, ptr %23, align 8
  %25 = getelementptr inbounds nuw i8, ptr %21, i64 16
  %26 = load ptr, ptr %25, align 8
  %27 = getelementptr inbounds nuw i8, ptr %26, i64 32
  store i64 %24, ptr %27, align 8
  br label %34

28:                                               ; preds = %17
  %29 = getelementptr inbounds nuw i8, ptr %13, i64 32
  %30 = load i64, ptr %29, align 8
  %31 = load ptr, ptr %0, align 8
  %32 = getelementptr inbounds nuw i8, ptr %31, i64 4160
  %33 = getelementptr inbounds nuw [16 x i64], ptr %32, i64 0, i64 %15
  store i64 %30, ptr %33, align 8
  br label %34

34:                                               ; preds = %28, %20
  %35 = load ptr, ptr %12, align 8
  %36 = getelementptr inbounds nuw i8, ptr %35, i64 32
  %37 = load i64, ptr %36, align 8
  %.not14.i = icmp eq i64 %37, -1
  br i1 %.not14.i, label %unlink_segment.exit, label %38

38:                                               ; preds = %34
  %39 = tail call fastcc ptr @get_segment_by_index(ptr noundef %0, i64 noundef %37)
  %40 = load ptr, ptr %12, align 8
  %41 = getelementptr inbounds nuw i8, ptr %40, i64 24
  %42 = load i64, ptr %41, align 8
  %43 = getelementptr inbounds nuw i8, ptr %39, i64 16
  %44 = load ptr, ptr %43, align 8
  %45 = getelementptr inbounds nuw i8, ptr %44, i64 24
  store i64 %42, ptr %45, align 8
  %.pre = load ptr, ptr %12, align 8
  br label %unlink_segment.exit

unlink_segment.exit:                              ; preds = %34, %38
  %46 = phi ptr [ %35, %34 ], [ %.pre, %38 ]
  %47 = getelementptr inbounds nuw i8, ptr %0, i64 16
  %48 = ptrtoint ptr %1 to i64
  %49 = ptrtoint ptr %47 to i64
  %50 = sub i64 %48, %49
  %51 = sdiv exact i64 %50, 40
  %52 = getelementptr inbounds nuw i8, ptr %46, i64 24
  store i64 -1, ptr %52, align 8
  %53 = load ptr, ptr %0, align 8
  %54 = getelementptr inbounds nuw i8, ptr %53, i64 4160
  %55 = getelementptr inbounds nuw [16 x i64], ptr %54, i64 0, i64 %11
  %56 = load i64, ptr %55, align 8
  %57 = load ptr, ptr %12, align 8
  %58 = getelementptr inbounds nuw i8, ptr %57, i64 32
  store i64 %56, ptr %58, align 8
  %59 = load ptr, ptr %12, align 8
  %60 = getelementptr inbounds nuw i8, ptr %59, i64 40
  store i64 %11, ptr %60, align 8
  %61 = load ptr, ptr %0, align 8
  %62 = getelementptr inbounds nuw i8, ptr %61, i64 4160
  %63 = getelementptr inbounds nuw [16 x i64], ptr %62, i64 0, i64 %11
  store i64 %51, ptr %63, align 8
  %64 = load ptr, ptr %12, align 8
  %65 = getelementptr inbounds nuw i8, ptr %64, i64 32
  %66 = load i64, ptr %65, align 8
  %.not = icmp eq i64 %66, -1
  br i1 %.not, label %72, label %67

67:                                               ; preds = %unlink_segment.exit
  %68 = tail call fastcc ptr @get_segment_by_index(ptr noundef nonnull %0, i64 noundef %66)
  %69 = getelementptr inbounds nuw i8, ptr %68, i64 16
  %70 = load ptr, ptr %69, align 8
  %71 = getelementptr inbounds nuw i8, ptr %70, i64 24
  store i64 %51, ptr %71, align 8
  br label %72

72:                                               ; preds = %unlink_segment.exit, %67, %2
  ret void
}